target datalayout = "e-m:e-p270:32:32-p271:32:32-p272:64:64-i64:64-i128:128-f80:128-n8:16:32:64-S128"
target triple = "x86_64-pc-linux-gnu"

; Function Attrs: nounwind uwtable
define internal void @pred8x16_top_dc_9_c(ptr noundef %0, i64 noundef %1) #1 {
  %3 = alloca ptr, align 8
  %4 = alloca i64, align 8
  %5 = alloca i32, align 4
  %6 = alloca i32, align 4
  %7 = alloca i32, align 4
  %8 = alloca i64, align 8
  %9 = alloca i64, align 8
  %10 = alloca ptr, align 8
  store ptr %0, ptr %3, align 8, !tbaa !12
  store i64 %1, ptr %4, align 8, !tbaa !14
  call void @llvm.lifetime.start.p0(i64 4, ptr %5) #9
  call void @llvm.lifetime.start.p0(i64 4, ptr %6) #9
  call void @llvm.lifetime.start.p0(i64 4, ptr %7) #9
  call void @llvm.lifetime.start.p0(i64 8, ptr %8) #9
  call void @llvm.lifetime.start.p0(i64 8, ptr %9) #9
  call void @llvm.lifetime.start.p0(i64 8, ptr %10) #9
  %11 = load ptr, ptr %3, align 8, !tbaa !12
  store ptr %11, ptr %10, align 8, !tbaa !16
  %12 = load i64, ptr %4, align 8, !tbaa !14
  %13 = ashr i64 %12, 1
  store i64 %13, ptr %4, align 8, !tbaa !14
  store i32 0, ptr %7, align 4, !tbaa !9
  store i32 0, ptr %6, align 4, !tbaa !9
  store i32 0, ptr %5, align 4, !tbaa !9
  br label %14

14:                                               ; preds = %39, %2
  %15 = load i32, ptr %5, align 4, !tbaa !9
  %16 = icmp slt i32 %15, 4
  br i1 %16, label %17, label %42

17:                                               ; preds = %14
  %18 = load ptr, ptr %10, align 8, !tbaa !16
  %19 = load i32, ptr %5, align 4, !tbaa !9
  %20 = sext i32 %19 to i64
  %21 = load i64, ptr %4, align 8, !tbaa !14
  %22 = sub nsw i64 %20, %21
  %23 = getelementptr inbounds i16, ptr %18, i64 %22
  %24 = load i16, ptr %23, align 2, !tbaa !19
  %25 = zext i16 %24 to i32
  %26 = load i32, ptr %6, align 4, !tbaa !9
  %27 = add nsw i32 %26, %25
  store i32 %27, ptr %6, align 4, !tbaa !9
  %28 = load ptr, ptr %10, align 8, !tbaa !16
  %29 = load i32, ptr %5, align 4, !tbaa !9
  %30 = add nsw i32 4, %29
  %31 = sext i32 %30 to i64
  %32 = load i64, ptr %4, align 8, !tbaa !14
  %33 = sub nsw i64 %31, %32
  %34 = getelementptr inbounds i16, ptr %28, i64 %33
  %35 = load i16, ptr %34, align 2, !tbaa !19
  %36 = zext i16 %35 to i32
  %37 = load i32, ptr %7, align 4, !tbaa !9
  %38 = add nsw i32 %37, %36
  store i32 %38, ptr %7, align 4, !tbaa !9
  br label %39

39:                                               ; preds = %17
  %40 = load i32, ptr %5, align 4, !tbaa !9
  %41 = add nsw i32 %40, 1
  store i32 %41, ptr %5, align 4, !tbaa !9
  br label %14, !llvm.loop !50

42:                                               ; preds = %14
  %43 = load i32, ptr %6, align 4, !tbaa !9
  %44 = add nsw i32 %43, 2
  %45 = ashr i32 %44, 2
  %46 = sext i32 %45 to i64
  %47 = mul i64 %46, 281479271743489
  store i64 %47, ptr %8, align 8, !tbaa !14
  %48 = load i32, ptr %7, align 4, !tbaa !9
  %49 = add nsw i32 %48, 2
  %50 = ashr i32 %49, 2
  %51 = sext i32 %50 to i64
  %52 = mul i64 %51, 281479271743489
  store i64 %52, ptr %9, align 8, !tbaa !14
  store i32 0, ptr %5, align 4, !tbaa !9
  br label %53

53:                                               ; preds = %73, %42
  %54 = load i32, ptr %5, align 4, !tbaa !9
  %55 = icmp slt i32 %54, 16
  br i1 %55, label %56, label %76

56:                                               ; preds = %53
  %57 = load i64, ptr %8, align 8, !tbaa !14
  %58 = load ptr, ptr %10, align 8, !tbaa !16
  %59 = load i32, ptr %5, align 4, !tbaa !9
  %60 = sext i32 %59 to i64
  %61 = load i64, ptr %4, align 8, !tbaa !14
  %62 = mul nsw i64 %60, %61
  %63 = getelementptr inbounds i16, ptr %58, i64 %62
  %64 = getelementptr inbounds i64, ptr %63, i64 0
  store i64 %57, ptr %64, align 8, !tbaa !18
  %65 = load i64, ptr %9, align 8, !tbaa !14
  %66 = load ptr, ptr %10, align 8, !tbaa !16
  %67 = load i32, ptr %5, align 4, !tbaa !9
  %68 = sext i32 %67 to i64
  %69 = load i64, ptr %4, align 8, !tbaa !14
  %70 = mul nsw i64 %68, %69
  %71 = getelementptr inbounds i16, ptr %66, i64 %70
  %72 = getelementptr inbounds i64, ptr %71, i64 1
  store i64 %65, ptr %72, align 8, !tbaa !18
  br label %73

73:                                               ; preds = %56
  %74 = load i32, ptr %5, align 4, !tbaa !9
  %75 = add nsw i32 %74, 1
  store i32 %75, ptr %5, align 4, !tbaa !9
  br label %53, !llvm.loop !51

76:                                               ; preds = %53
  call void @llvm.lifetime.end.p0(i64 8, ptr %10) #9
  call void @llvm.lifetime.end.p0(i64 8, ptr %9) #9
  call void @llvm.lifetime.end.p0(i64 8, ptr %8) #9
  call void @llvm.lifetime.end.p0(i64 4, ptr %7) #9
  call void @llvm.lifetime.end.p0(i64 4, ptr %6) #9
  call void @llvm.lifetime.end.p0(i64 4, ptr %5) #9
  ret void
}