; Function Attrs: nofree norecurse nosync nounwind memory(argmem: readwrite) uwtable
define internal void @pred8x16_top_dc_9_c(ptr noundef captures(none) %0, i64 noundef %1) #3 {
  %3 = ashr i64 %1, 1
  br label %4

4:                                                ; preds = %2, %4
  %indvars.iv = phi i64 [ 0, %2 ], [ %indvars.iv.next, %4 ]
  %.02326 = phi i32 [ 0, %2 ], [ %9, %4 ]
  %.02425 = phi i32 [ 0, %2 ], [ %15, %4 ]
  %5 = sub nsw i64 %indvars.iv, %3
  %6 = getelementptr inbounds i16, ptr %0, i64 %5
  %7 = load i16, ptr %6, align 2, !tbaa !9
  %8 = zext i16 %7 to i32
  %9 = add nuw nsw i32 %.02326, %8
  %10 = or disjoint i64 %indvars.iv, 4
  %11 = sub nsw i64 %10, %3
  %12 = getelementptr inbounds i16, ptr %0, i64 %11
  %13 = load i16, ptr %12, align 2, !tbaa !9
  %14 = zext i16 %13 to i32
  %15 = add nuw nsw i32 %.02425, %14
  %indvars.iv.next = add nuw nsw i64 %indvars.iv, 1
  %exitcond.not = icmp eq i64 %indvars.iv.next, 4
  br i1 %exitcond.not, label %16, label %4, !llvm.loop !40

16:                                               ; preds = %4
  %17 = add nuw nsw i32 %9, 2
  %18 = lshr i32 %17, 2
  %19 = zext nneg i32 %18 to i64
  %20 = mul i64 %19, 281479271743489
  %21 = add nuw nsw i32 %15, 2
  %22 = lshr i32 %21, 2
  %23 = zext nneg i32 %22 to i64
  %24 = mul i64 %23, 281479271743489
  br label %25

25:                                               ; preds = %16, %25
  %indvars.iv31 = phi i64 [ 0, %16 ], [ %indvars.iv.next32, %25 ]
  %26 = mul nsw i64 %3, %indvars.iv31
  %27 = getelementptr inbounds i16, ptr %0, i64 %26
  store i64 %20, ptr %27, align 8, !tbaa !8
  %28 = getelementptr inbounds nuw i8, ptr %27, i64 8
  store i64 %24, ptr %28, align 8, !tbaa !8
  %indvars.iv.next32 = add nuw nsw i64 %indvars.iv31, 1
  %exitcond34.not = icmp eq i64 %indvars.iv.next32, 16
  br i1 %exitcond34.not, label %29, label %25, !llvm.loop !41

29:                                               ; preds = %25
  ret void
}